; Function Attrs: mustprogress nofree norecurse nosync nounwind willreturn memory(readwrite, inaccessiblemem: none) uwtable
define internal noundef i32 @fs(double %0, ptr noundef readonly captures(none) %1, ptr noundef readonly captures(none) %2, ptr readnone captures(none) %3) #4 {
  %5 = load ptr, ptr %1, align 8, !tbaa !15
  %6 = getelementptr inbounds nuw i8, ptr %5, i64 16
  %7 = load ptr, ptr %6, align 8, !tbaa !18
  %8 = load double, ptr %7, align 8, !tbaa !9
  %9 = getelementptr inbounds nuw i8, ptr %7, i64 8
  %10 = load double, ptr %9, align 8, !tbaa !9
  %11 = fmul double %10, -5.000000e+01
  %12 = load ptr, ptr %2, align 8, !tbaa !15
  %13 = getelementptr inbounds nuw i8, ptr %12, i64 16
  %14 = load ptr, ptr %13, align 8, !tbaa !18
  store double %11, ptr %14, align 8, !tbaa !9
  %15 = fmul double %8, 5.000000e+01
  %16 = getelementptr inbounds nuw i8, ptr %14, i64 8
  store double %15, ptr %16, align 8, !tbaa !9
  %17 = fadd double %8, %10
  %18 = getelementptr inbounds nuw i8, ptr %14, i64 16
  store double %17, ptr %18, align 8, !tbaa !9
  ret i32 0
}